target datalayout = "e-m:e-p270:32:32-p271:32:32-p272:64:64-i64:64-i128:128-f80:128-n8:16:32:64-S128"
target triple = "x86_64-pc-linux-gnu"

%struct.h5tools_str_t = type { ptr, i64, i64 }
%struct.h5tools_context_t = type { i64, i64, i32, i32, [32 x i64], [32 x i64], i32, i64, i32, i64, i32, i32, [32 x i64], [32 x i64], i64, ptr, ptr, i32, i32 }
%struct.h5tool_format_t = type { i8, ptr, ptr, ptr, ptr, ptr, ptr, ptr, ptr, ptr, ptr, ptr, ptr, ptr, ptr, ptr, ptr, ptr, i32, i32, i32, ptr, ptr, ptr, i32, ptr, ptr, ptr, ptr, ptr, ptr, ptr, ptr, ptr, ptr, ptr, ptr, ptr, ptr, ptr, ptr, i32, i64, ptr, ptr, ptr, ptr, ptr, i32, ptr, i32, i32, ptr, i32, ptr, ptr, ptr, ptr, i32, i32 }

@.str = private unnamed_addr constant [3 x i8] c"%s\00", align 1
@.str.1 = private unnamed_addr constant [2 x i8] c",\00", align 1
@.str.2 = private unnamed_addr constant [4 x i8] c"%lu\00", align 1
@.str.3 = private unnamed_addr constant [5 x i8] c"%s: \00", align 1

; Function Attrs: nounwind uwtable
define ptr @h5tools_str_reset(ptr noundef %0) #0 {
  %2 = alloca ptr, align 8
  store ptr %0, ptr %2, align 8, !tbaa !3
  %3 = load ptr, ptr %2, align 8, !tbaa !3
  %4 = getelementptr inbounds nuw %struct.h5tools_str_t, ptr %3, i32 0, i32 0
  %5 = load ptr, ptr %4, align 8, !tbaa !12
  %6 = icmp ne ptr %5, null
  br i1 %6, label %7, label %12

7:                                                ; preds = %1
  %8 = load ptr, ptr %2, align 8, !tbaa !3
  %9 = getelementptr inbounds nuw %struct.h5tools_str_t, ptr %8, i32 0, i32 2
  %10 = load i64, ptr %9, align 8, !tbaa !8
  %11 = icmp ule i64 %10, 0
  br i1 %11, label %12, label %21

12:                                               ; preds = %7, %1
  %13 = load ptr, ptr %2, align 8, !tbaa !3
  %14 = getelementptr inbounds nuw %struct.h5tools_str_t, ptr %13, i32 0, i32 2
  store i64 4096, ptr %14, align 8, !tbaa !8
  %15 = load ptr, ptr %2, align 8, !tbaa !3
  %16 = getelementptr inbounds nuw %struct.h5tools_str_t, ptr %15, i32 0, i32 2
  %17 = load i64, ptr %16, align 8, !tbaa !8
  %18 = call noalias ptr @malloc(i64 noundef %17) #15
  %19 = load ptr, ptr %2, align 8, !tbaa !3
  %20 = getelementptr inbounds nuw %struct.h5tools_str_t, ptr %19, i32 0, i32 0
  store ptr %18, ptr %20, align 8, !tbaa !12
  br label %21

21:                                               ; preds = %12, %7
  %22 = load ptr, ptr %2, align 8, !tbaa !3
  %23 = getelementptr inbounds nuw %struct.h5tools_str_t, ptr %22, i32 0, i32 0
  %24 = load ptr, ptr %23, align 8, !tbaa !12
  %25 = getelementptr inbounds i8, ptr %24, i64 0
  store i8 0, ptr %25, align 1, !tbaa !18
  %26 = load ptr, ptr %2, align 8, !tbaa !3
  %27 = getelementptr inbounds nuw %struct.h5tools_str_t, ptr %26, i32 0, i32 1
  store i64 0, ptr %27, align 8, !tbaa !13
  %28 = load ptr, ptr %2, align 8, !tbaa !3
  %29 = getelementptr inbounds nuw %struct.h5tools_str_t, ptr %28, i32 0, i32 0
  %30 = load ptr, ptr %29, align 8, !tbaa !12
  ret ptr %30
}

; Function Attrs: nounwind uwtable
define ptr @h5tools_str_region_prefix(ptr noundef %0, ptr noundef %1, i64 noundef %2, ptr noundef %3, ptr noundef %4) #0 {
  %6 = alloca ptr, align 8
  %7 = alloca ptr, align 8
  %8 = alloca i64, align 8
  %9 = alloca ptr, align 8
  %10 = alloca ptr, align 8
  %11 = alloca i64, align 8
  store ptr %0, ptr %6, align 8, !tbaa !3
  store ptr %1, ptr %7, align 8, !tbaa !19
  store i64 %2, ptr %8, align 8, !tbaa !17
  store ptr %3, ptr %9, align 8, !tbaa !34
  store ptr %4, ptr %10, align 8, !tbaa !21
  call void @llvm.lifetime.start.p0(i64 8, ptr %11) #12
  store i64 0, ptr %11, align 8, !tbaa !17
  br label %12

12:                                               ; preds = %5
  br label %13

13:                                               ; preds = %12
  br label %14

14:                                               ; preds = %13
  br label %15

15:                                               ; preds = %14
  br label %16

16:                                               ; preds = %15
  br label %17

17:                                               ; preds = %16
  %18 = load ptr, ptr %6, align 8, !tbaa !3
  %19 = call ptr @h5tools_str_reset(ptr noundef %18)
  %20 = load ptr, ptr %10, align 8, !tbaa !21
  %21 = getelementptr inbounds nuw %struct.h5tools_context_t, ptr %20, i32 0, i32 3
  %22 = load i32, ptr %21, align 4, !tbaa !23
  %23 = load i64, ptr %8, align 8, !tbaa !17
  %24 = load ptr, ptr %10, align 8, !tbaa !21
  %25 = getelementptr inbounds nuw %struct.h5tools_context_t, ptr %24, i32 0, i32 12
  %26 = getelementptr inbounds [32 x i64], ptr %25, i64 0, i64 0
  %27 = load ptr, ptr %10, align 8, !tbaa !21
  %28 = getelementptr inbounds nuw %struct.h5tools_context_t, ptr %27, i32 0, i32 13
  %29 = getelementptr inbounds [32 x i64], ptr %28, i64 0, i64 0
  %30 = call i64 @calc_acc_pos(i32 noundef %22, i64 noundef %23, ptr noundef %26, ptr noundef %29)
  %31 = load ptr, ptr %10, align 8, !tbaa !21
  %32 = getelementptr inbounds nuw %struct.h5tools_context_t, ptr %31, i32 0, i32 3
  %33 = load i32, ptr %32, align 4, !tbaa !23
  %34 = icmp ugt i32 %33, 0
  br i1 %34, label %35, label %97

35:                                               ; preds = %17
  store i64 0, ptr %11, align 8, !tbaa !17
  br label %36

36:                                               ; preds = %93, %35
  %37 = load i64, ptr %11, align 8, !tbaa !17
  %38 = load ptr, ptr %10, align 8, !tbaa !21
  %39 = getelementptr inbounds nuw %struct.h5tools_context_t, ptr %38, i32 0, i32 3
  %40 = load i32, ptr %39, align 4, !tbaa !23
  %41 = zext i32 %40 to i64
  %42 = icmp ult i64 %37, %41
  br i1 %42, label %43, label %96

43:                                               ; preds = %36
  %44 = load ptr, ptr %9, align 8, !tbaa !34
  %45 = load ptr, ptr %10, align 8, !tbaa !21
  %46 = getelementptr inbounds nuw %struct.h5tools_context_t, ptr %45, i32 0, i32 14
  %47 = load i64, ptr %46, align 8, !tbaa !36
  %48 = load i64, ptr %11, align 8, !tbaa !17
  %49 = add i64 %47, %48
  %50 = getelementptr inbounds nuw i64, ptr %44, i64 %49
  %51 = load i64, ptr %50, align 8, !tbaa !17
  %52 = load ptr, ptr %10, align 8, !tbaa !21
  %53 = getelementptr inbounds nuw %struct.h5tools_context_t, ptr %52, i32 0, i32 13
  %54 = load i64, ptr %11, align 8, !tbaa !17
  %55 = getelementptr inbounds nuw [32 x i64], ptr %53, i64 0, i64 %54
  %56 = load i64, ptr %55, align 8, !tbaa !17
  %57 = add i64 %56, %51
  store i64 %57, ptr %55, align 8, !tbaa !17
  %58 = load i64, ptr %11, align 8, !tbaa !17
  %59 = icmp ne i64 %58, 0
  br i1 %59, label %60, label %74

60:                                               ; preds = %43
  %61 = load ptr, ptr %6, align 8, !tbaa !3
  %62 = load ptr, ptr %7, align 8, !tbaa !19
  %63 = getelementptr inbounds nuw %struct.h5tool_format_t, ptr %62, i32 0, i32 39
  %64 = load ptr, ptr %63, align 8, !tbaa !27
  %65 = icmp ne ptr %64, null
  br i1 %65, label %66, label %70

66:                                               ; preds = %60
  %67 = load ptr, ptr %7, align 8, !tbaa !19
  %68 = getelementptr inbounds nuw %struct.h5tool_format_t, ptr %67, i32 0, i32 39
  %69 = load ptr, ptr %68, align 8, !tbaa !27
  br label %71

70:                                               ; preds = %60
  br label %71

71:                                               ; preds = %70, %66
  %72 = phi ptr [ %69, %66 ], [ @.str.1, %70 ]
  %73 = call ptr (ptr, ptr, ...) @h5tools_str_append(ptr noundef %61, ptr noundef @.str, ptr noundef %72)
  br label %74

74:                                               ; preds = %71, %43
  %75 = load ptr, ptr %6, align 8, !tbaa !3
  %76 = load ptr, ptr %7, align 8, !tbaa !19
  %77 = getelementptr inbounds nuw %struct.h5tool_format_t, ptr %76, i32 0, i32 38
  %78 = load ptr, ptr %77, align 8, !tbaa !30
  %79 = icmp ne ptr %78, null
  br i1 %79, label %80, label %84

80:                                               ; preds = %74
  %81 = load ptr, ptr %7, align 8, !tbaa !19
  %82 = getelementptr inbounds nuw %struct.h5tool_format_t, ptr %81, i32 0, i32 38
  %83 = load ptr, ptr %82, align 8, !tbaa !30
  br label %85

84:                                               ; preds = %74
  br label %85

85:                                               ; preds = %84, %80
  %86 = phi ptr [ %83, %80 ], [ @.str.2, %84 ]
  %87 = load ptr, ptr %10, align 8, !tbaa !21
  %88 = getelementptr inbounds nuw %struct.h5tools_context_t, ptr %87, i32 0, i32 13
  %89 = load i64, ptr %11, align 8, !tbaa !17
  %90 = getelementptr inbounds nuw [32 x i64], ptr %88, i64 0, i64 %89
  %91 = load i64, ptr %90, align 8, !tbaa !17
  %92 = call ptr (ptr, ptr, ...) @h5tools_str_append(ptr noundef %75, ptr noundef %86, i64 noundef %91)
  br label %93

93:                                               ; preds = %85
  %94 = load i64, ptr %11, align 8, !tbaa !17
  %95 = add i64 %94, 1
  store i64 %95, ptr %11, align 8, !tbaa !17
  br label %36, !llvm.loop !37

96:                                               ; preds = %36
  br label %111

97:                                               ; preds = %17
  %98 = load ptr, ptr %6, align 8, !tbaa !3
  %99 = load ptr, ptr %7, align 8, !tbaa !19
  %100 = getelementptr inbounds nuw %struct.h5tool_format_t, ptr %99, i32 0, i32 38
  %101 = load ptr, ptr %100, align 8, !tbaa !30
  %102 = icmp ne ptr %101, null
  br i1 %102, label %103, label %107

103:                                              ; preds = %97
  %104 = load ptr, ptr %7, align 8, !tbaa !19
  %105 = getelementptr inbounds nuw %struct.h5tool_format_t, ptr %104, i32 0, i32 38
  %106 = load ptr, ptr %105, align 8, !tbaa !30
  br label %108

107:                                              ; preds = %97
  br label %108

108:                                              ; preds = %107, %103
  %109 = phi ptr [ %106, %103 ], [ @.str.2, %107 ]
  %110 = call ptr (ptr, ptr, ...) @h5tools_str_append(ptr noundef %98, ptr noundef %109, i64 noundef 0)
  br label %111

111:                                              ; preds = %108, %96
  br label %112

112:                                              ; preds = %111
  br label %113

113:                                              ; preds = %112
  br label %114

114:                                              ; preds = %113
  br label %115

115:                                              ; preds = %114
  br label %116

116:                                              ; preds = %115
  br label %117

117:                                              ; preds = %116
  %118 = load ptr, ptr %6, align 8, !tbaa !3
  %119 = load ptr, ptr %7, align 8, !tbaa !19
  %120 = getelementptr inbounds nuw %struct.h5tool_format_t, ptr %119, i32 0, i32 40
  %121 = load ptr, ptr %120, align 8, !tbaa !33
  %122 = icmp ne ptr %121, null
  br i1 %122, label %123, label %127

123:                                              ; preds = %117
  %124 = load ptr, ptr %7, align 8, !tbaa !19
  %125 = getelementptr inbounds nuw %struct.h5tool_format_t, ptr %124, i32 0, i32 40
  %126 = load ptr, ptr %125, align 8, !tbaa !33
  br label %128

127:                                              ; preds = %117
  br label %128

128:                                              ; preds = %127, %123
  %129 = phi ptr [ %126, %123 ], [ @.str.3, %127 ]
  %130 = call ptr @h5tools_str_fmt(ptr noundef %118, i64 noundef 0, ptr noundef %129)
  call void @llvm.lifetime.end.p0(i64 8, ptr %11) #12
  ret ptr %130
}