; Function Attrs: nounwind uwtable
define ptr @h5tools_str_region_prefix(ptr noundef captures(none) initializes((8, 16)) %0, ptr noundef readonly captures(none) %1, i64 noundef %2, ptr noundef readonly captures(none) %3, ptr noundef %4) local_unnamed_addr #4 {
  %6 = load ptr, ptr %0, align 8, !tbaa !10
  %.not.i = icmp eq ptr %6, null
  br i1 %.not.i, label %11, label %7

7:                                                ; preds = %5
  %8 = getelementptr inbounds nuw i8, ptr %0, i64 16
  %9 = load i64, ptr %8, align 8, !tbaa !3
  %10 = icmp eq i64 %9, 0
  br i1 %10, label %11, label %h5tools_str_reset.exit

11:                                               ; preds = %7, %5
  %12 = getelementptr inbounds nuw i8, ptr %0, i64 16
  store i64 4096, ptr %12, align 8, !tbaa !3
  %13 = tail call noalias dereferenceable_or_null(4096) ptr @malloc(i64 noundef 4096) #22
  store ptr %13, ptr %0, align 8, !tbaa !10
  br label %h5tools_str_reset.exit

h5tools_str_reset.exit:                           ; preds = %7, %11
  %14 = phi ptr [ %13, %11 ], [ %6, %7 ]
  store i8 0, ptr %14, align 1, !tbaa !12
  %15 = getelementptr inbounds nuw i8, ptr %0, i64 8
  store i64 0, ptr %15, align 8, !tbaa !11
  %16 = getelementptr inbounds nuw i8, ptr %4, i64 20
  %17 = load i32, ptr %16, align 4, !tbaa !13
  %18 = getelementptr inbounds nuw i8, ptr %4, i64 576
  %19 = getelementptr inbounds nuw i8, ptr %4, i64 832
  %20 = tail call i64 @calc_acc_pos(i32 noundef %17, i64 noundef %2, ptr noundef nonnull %18, ptr noundef nonnull %19) #21
  %21 = load i32, ptr %16, align 4, !tbaa !13
  %.not = icmp eq i32 %21, 0
  br i1 %.not, label %44, label %.lr.ph

.lr.ph:                                           ; preds = %h5tools_str_reset.exit
  %22 = getelementptr inbounds nuw i8, ptr %4, i64 1088
  %23 = getelementptr inbounds nuw i8, ptr %1, i64 304
  %24 = getelementptr inbounds nuw i8, ptr %1, i64 296
  br label %25

25:                                               ; preds = %.lr.ph, %36
  %.040 = phi i64 [ 0, %.lr.ph ], [ %40, %36 ]
  %26 = load i64, ptr %22, align 8, !tbaa !26
  %27 = getelementptr i64, ptr %3, i64 %26
  %28 = getelementptr i64, ptr %27, i64 %.040
  %29 = load i64, ptr %28, align 8, !tbaa !22
  %30 = getelementptr inbounds nuw [32 x i64], ptr %19, i64 0, i64 %.040
  %31 = load i64, ptr %30, align 8, !tbaa !22
  %32 = add i64 %31, %29
  store i64 %32, ptr %30, align 8, !tbaa !22
  %.not34 = icmp eq i64 %.040, 0
  br i1 %.not34, label %36, label %33

33:                                               ; preds = %25
  %34 = load ptr, ptr %23, align 8, !tbaa !18
  %.not35 = icmp eq ptr %34, null
  %spec.select = select i1 %.not35, ptr @.str.1, ptr %34
  %35 = tail call ptr (ptr, ptr, ...) @h5tools_str_append(ptr noundef nonnull %0, ptr noundef nonnull @.str, ptr noundef nonnull %spec.select)
  %.pre = load i64, ptr %30, align 8, !tbaa !22
  br label %36

36:                                               ; preds = %33, %25
  %37 = phi i64 [ %.pre, %33 ], [ %32, %25 ]
  %38 = load ptr, ptr %24, align 8, !tbaa !21
  %.not36 = icmp eq ptr %38, null
  %spec.select37 = select i1 %.not36, ptr @.str.2, ptr %38
  %39 = tail call ptr (ptr, ptr, ...) @h5tools_str_append(ptr noundef nonnull %0, ptr noundef nonnull %spec.select37, i64 noundef %37)
  %40 = add nuw nsw i64 %.040, 1
  %41 = load i32, ptr %16, align 4, !tbaa !13
  %42 = zext i32 %41 to i64
  %43 = icmp samesign ult i64 %40, %42
  br i1 %43, label %25, label %.loopexit, !llvm.loop !27

44:                                               ; preds = %h5tools_str_reset.exit
  %45 = getelementptr inbounds nuw i8, ptr %1, i64 296
  %46 = load ptr, ptr %45, align 8, !tbaa !21
  %.not32 = icmp eq ptr %46, null
  %spec.select38 = select i1 %.not32, ptr @.str.2, ptr %46
  %47 = tail call ptr (ptr, ptr, ...) @h5tools_str_append(ptr noundef nonnull %0, ptr noundef nonnull %spec.select38, i64 noundef 0)
  br label %.loopexit

.loopexit:                                        ; preds = %36, %44
  %48 = getelementptr inbounds nuw i8, ptr %1, i64 312
  %49 = load ptr, ptr %48, align 8, !tbaa !25
  %.not33 = icmp eq ptr %49, null
  %spec.select39 = select i1 %.not33, ptr @.str.3, ptr %49
  %50 = tail call ptr @h5tools_str_fmt(ptr noundef nonnull %0, i64 noundef 0, ptr noundef nonnull %spec.select39)
  ret ptr %50
}